; Function Attrs: mustprogress uwtable
define void @_ZN3gmx18TextTableFormatter9addColumnEPKcib(ptr noundef nonnull readonly align 8 captures(none) dereferenceable(8) %0, ptr noundef %1, i32 noundef %2, i1 noundef zeroext %3) local_unnamed_addr #1 align 2 {
  %5 = alloca ptr, align 8
  %6 = alloca i32, align 4
  %7 = alloca i8, align 1
  store ptr %1, ptr %5, align 8, !tbaa !38
  store i32 %2, ptr %6, align 4, !tbaa !39
  %8 = zext i1 %3 to i8
  store i8 %8, ptr %7, align 1, !tbaa !40
  %.not = icmp eq ptr %1, null
  br i1 %.not, label %._crit_edge, label %9

._crit_edge:                                      ; preds = %4
  %.pre = load ptr, ptr %0, align 8, !tbaa !18
  br label %13

9:                                                ; preds = %4
  %10 = load i8, ptr %1, align 1, !tbaa !32
  %.not1 = icmp eq i8 %10, 0
  %.pre2 = load ptr, ptr %0, align 8, !tbaa !18
  br i1 %.not1, label %13, label %11

11:                                               ; preds = %9
  %12 = getelementptr inbounds nuw i8, ptr %.pre2, i64 33
  store i8 1, ptr %12, align 1, !tbaa !17
  br label %13

13:                                               ; preds = %._crit_edge, %11, %9
  %14 = phi ptr [ %.pre, %._crit_edge ], [ %.pre2, %11 ], [ %.pre2, %9 ]
  %15 = call noundef nonnull align 8 dereferenceable(88) ptr @_ZNSt6vectorIN3gmx18TextTableFormatter4Impl10ColumnDataESaIS3_EE12emplace_backIJRPKcRiRbEEERS3_DpOT_(ptr noundef nonnull align 8 dereferenceable(24) %14, ptr noundef nonnull align 8 dereferenceable(8) %5, ptr noundef nonnull align 4 dereferenceable(4) %6, ptr noundef nonnull align 1 dereferenceable(1) %7)
  ret void
}